; Function Attrs: mustprogress uwtable
define void @_ZN5dtm_tC2EiPPc(ptr noundef nonnull align 8 dereferenceable(928) %0, i32 noundef %1, ptr noundef %2) unnamed_addr #0 align 2 personality ptr @__gxx_personality_v0 {
  tail call void @_ZN6htif_tC2EiPPc(ptr noundef nonnull align 8 dereferenceable(696) %0, i32 noundef %1, ptr noundef %2)
  store ptr getelementptr inbounds ({ [18 x ptr] }, ptr @_ZTV5dtm_t, i64 0, i32 0, i64 2), ptr %0, align 8
  %4 = getelementptr inbounds i8, ptr %0, i64 696
  invoke void @_ZN9context_tC1Ev(ptr noundef nonnull align 8 dereferenceable(32) %4)
          to label %5 unwind label %11

5:                                                ; preds = %3
  %6 = getelementptr inbounds i8, ptr %0, i64 892
  store i8 0, ptr %6, align 4
  %7 = getelementptr inbounds i8, ptr %0, i64 893
  store i8 0, ptr %7, align 1
  %8 = getelementptr inbounds i8, ptr %0, i64 894
  store i8 0, ptr %8, align 2
  %9 = invoke noundef ptr @_ZN9context_t7currentEv()
          to label %.noexc unwind label %13

.noexc:                                           ; preds = %5
  %10 = getelementptr inbounds i8, ptr %0, i64 728
  store ptr %9, ptr %10, align 8
  invoke void @_ZN9context_t4initEPFvPvES0_(ptr noundef nonnull align 8 dereferenceable(32) %4, ptr noundef nonnull @_Z16host_thread_mainPv, ptr noundef nonnull %0)
          to label %.noexc6 unwind label %13

.noexc6:                                          ; preds = %.noexc
  invoke void @_ZN9context_t9switch_toEv(ptr noundef nonnull align 8 dereferenceable(32) %4)
          to label %_ZN5dtm_t17start_host_threadEv.exit unwind label %13

_ZN5dtm_t17start_host_threadEv.exit:              ; preds = %.noexc6
  ret void

11:                                               ; preds = %3
  %12 = landingpad { ptr, i32 }
          cleanup
  br label %15

13:                                               ; preds = %.noexc6, %.noexc, %5
  %14 = landingpad { ptr, i32 }
          cleanup
  tail call void @_ZN9context_tD1Ev(ptr noundef nonnull align 8 dereferenceable(32) %4) #10
  br label %15

15:                                               ; preds = %13, %11
  %.pn = phi { ptr, i32 } [ %14, %13 ], [ %12, %11 ]
  tail call void @_ZN6htif_tD2Ev(ptr noundef nonnull align 8 dereferenceable(696) %0) #10
  resume { ptr, i32 } %.pn
}